target datalayout = "e-m:e-p270:32:32-p271:32:32-p272:64:64-i64:64-i128:128-f80:128-n8:16:32:64-S128"
target triple = "x86_64-pc-linux-gnu"

%struct.AVFilterLink = type { ptr, ptr, ptr, ptr, i32, i32, i32, i32, %struct.AVRational, i32, i32, i32, %struct.AVChannelLayout, %struct.AVRational, ptr, i32, %struct.AVFilterFormatsConfig, %struct.AVFilterFormatsConfig }
%struct.AVChannelLayout = type { i32, i32, %union.anon.1, ptr }
%union.anon.1 = type { i64 }
%struct.AVRational = type { i32, i32 }
%struct.AVFilterFormatsConfig = type { ptr, ptr, ptr, ptr, ptr }
%struct.AVFilterContext = type { ptr, ptr, ptr, ptr, ptr, i32, ptr, ptr, i32, ptr, ptr, i32, i32, ptr, ptr, ptr, ptr, i32, ptr, i32, i32 }
%struct.AVFrame = type { [8 x ptr], [8 x i32], ptr, i32, i32, i32, i32, i32, %struct.AVRational, i64, i64, %struct.AVRational, i32, ptr, i32, i32, [8 x ptr], ptr, i32, ptr, i32, i32, i32, i32, i32, i32, i32, i64, ptr, i32, ptr, ptr, i64, i64, i64, i64, ptr, %struct.AVChannelLayout, i64 }
%struct.AudioContrastContext = type { ptr, float, ptr }

; Function Attrs: nounwind uwtable
define internal i32 @filter_frame(ptr noundef %0, ptr noundef %1) #0 {
  %3 = alloca i32, align 4
  %4 = alloca ptr, align 8
  %5 = alloca ptr, align 8
  %6 = alloca ptr, align 8
  %7 = alloca ptr, align 8
  %8 = alloca ptr, align 8
  %9 = alloca ptr, align 8
  %10 = alloca i32, align 4
  store ptr %0, ptr %4, align 8, !tbaa !4
  store ptr %1, ptr %5, align 8, !tbaa !9
  call void @llvm.lifetime.start.p0(i64 8, ptr %6) #4
  %11 = load ptr, ptr %4, align 8, !tbaa !4
  %12 = getelementptr inbounds nuw %struct.AVFilterLink, ptr %11, i32 0, i32 2
  %13 = load ptr, ptr %12, align 8, !tbaa !11
  store ptr %13, ptr %6, align 8, !tbaa !23
  call void @llvm.lifetime.start.p0(i64 8, ptr %7) #4
  %14 = load ptr, ptr %6, align 8, !tbaa !23
  %15 = getelementptr inbounds nuw %struct.AVFilterContext, ptr %14, i32 0, i32 7
  %16 = load ptr, ptr %15, align 8, !tbaa !24
  %17 = getelementptr inbounds ptr, ptr %16, i64 0
  %18 = load ptr, ptr %17, align 8, !tbaa !4
  store ptr %18, ptr %7, align 8, !tbaa !4
  call void @llvm.lifetime.start.p0(i64 8, ptr %8) #4
  %19 = load ptr, ptr %6, align 8, !tbaa !23
  %20 = getelementptr inbounds nuw %struct.AVFilterContext, ptr %19, i32 0, i32 9
  %21 = load ptr, ptr %20, align 8, !tbaa !34
  store ptr %21, ptr %8, align 8, !tbaa !35
  call void @llvm.lifetime.start.p0(i64 8, ptr %9) #4
  %22 = load ptr, ptr %5, align 8, !tbaa !9
  %23 = call i32 @av_frame_is_writable(ptr noundef %22)
  %24 = icmp ne i32 %23, 0
  br i1 %24, label %25, label %27

25:                                               ; preds = %2
  %26 = load ptr, ptr %5, align 8, !tbaa !9
  store ptr %26, ptr %9, align 8, !tbaa !9
  br label %40

27:                                               ; preds = %2
  %28 = load ptr, ptr %7, align 8, !tbaa !4
  %29 = load ptr, ptr %5, align 8, !tbaa !9
  %30 = getelementptr inbounds nuw %struct.AVFrame, ptr %29, i32 0, i32 5
  %31 = load i32, ptr %30, align 8, !tbaa !37
  %32 = call ptr @ff_get_audio_buffer(ptr noundef %28, i32 noundef %31)
  store ptr %32, ptr %9, align 8, !tbaa !9
  %33 = load ptr, ptr %9, align 8, !tbaa !9
  %34 = icmp ne ptr %33, null
  br i1 %34, label %36, label %35

35:                                               ; preds = %27
  call void @av_frame_free(ptr noundef %5)
  store i32 -12, ptr %3, align 4
  store i32 1, ptr %10, align 4
  br label %69

36:                                               ; preds = %27
  %37 = load ptr, ptr %9, align 8, !tbaa !9
  %38 = load ptr, ptr %5, align 8, !tbaa !9
  %39 = call i32 @av_frame_copy_props(ptr noundef %37, ptr noundef %38)
  br label %40

40:                                               ; preds = %36, %25
  %41 = load ptr, ptr %8, align 8, !tbaa !35
  %42 = getelementptr inbounds nuw %struct.AudioContrastContext, ptr %41, i32 0, i32 2
  %43 = load ptr, ptr %42, align 8, !tbaa !43
  %44 = load ptr, ptr %9, align 8, !tbaa !9
  %45 = getelementptr inbounds nuw %struct.AVFrame, ptr %44, i32 0, i32 2
  %46 = load ptr, ptr %45, align 8, !tbaa !46
  %47 = load ptr, ptr %5, align 8, !tbaa !9
  %48 = getelementptr inbounds nuw %struct.AVFrame, ptr %47, i32 0, i32 2
  %49 = load ptr, ptr %48, align 8, !tbaa !46
  %50 = load ptr, ptr %5, align 8, !tbaa !9
  %51 = getelementptr inbounds nuw %struct.AVFrame, ptr %50, i32 0, i32 5
  %52 = load i32, ptr %51, align 8, !tbaa !37
  %53 = load ptr, ptr %5, align 8, !tbaa !9
  %54 = getelementptr inbounds nuw %struct.AVFrame, ptr %53, i32 0, i32 37
  %55 = getelementptr inbounds nuw %struct.AVChannelLayout, ptr %54, i32 0, i32 1
  %56 = load i32, ptr %55, align 4, !tbaa !47
  %57 = load ptr, ptr %8, align 8, !tbaa !35
  %58 = getelementptr inbounds nuw %struct.AudioContrastContext, ptr %57, i32 0, i32 1
  %59 = load float, ptr %58, align 8, !tbaa !48
  %60 = fdiv nsz float %59, 7.500000e+02
  call void %43(ptr noundef %46, ptr noundef %49, i32 noundef %52, i32 noundef %56, float noundef %60)
  %61 = load ptr, ptr %9, align 8, !tbaa !9
  %62 = load ptr, ptr %5, align 8, !tbaa !9
  %63 = icmp ne ptr %61, %62
  br i1 %63, label %64, label %65

64:                                               ; preds = %40
  call void @av_frame_free(ptr noundef %5)
  br label %65

65:                                               ; preds = %64, %40
  %66 = load ptr, ptr %7, align 8, !tbaa !4
  %67 = load ptr, ptr %9, align 8, !tbaa !9
  %68 = call i32 @ff_filter_frame(ptr noundef %66, ptr noundef %67)
  store i32 %68, ptr %3, align 4
  store i32 1, ptr %10, align 4
  br label %69

69:                                               ; preds = %65, %35
  call void @llvm.lifetime.end.p0(i64 8, ptr %9) #4
  call void @llvm.lifetime.end.p0(i64 8, ptr %8) #4
  call void @llvm.lifetime.end.p0(i64 8, ptr %7) #4
  call void @llvm.lifetime.end.p0(i64 8, ptr %6) #4
  %70 = load i32, ptr %3, align 4
  ret i32 %70
}