; Function Attrs: nounwind uwtable
define internal i32 @filter_frame(ptr noundef readonly captures(none) %0, ptr noundef %1) #0 {
  %3 = alloca ptr, align 8
  store ptr %1, ptr %3, align 8, !tbaa !4
  %4 = getelementptr inbounds nuw i8, ptr %0, i64 16
  %5 = load ptr, ptr %4, align 8, !tbaa !9
  %6 = getelementptr inbounds nuw i8, ptr %5, i64 56
  %7 = load ptr, ptr %6, align 8, !tbaa !21
  %8 = load ptr, ptr %7, align 8, !tbaa !31
  %9 = getelementptr inbounds nuw i8, ptr %5, i64 72
  %10 = load ptr, ptr %9, align 8, !tbaa !33
  %11 = tail call i32 @av_frame_is_writable(ptr noundef %1) #5
  %.not = icmp eq i32 %11, 0
  br i1 %.not, label %12, label %19

12:                                               ; preds = %2
  %13 = getelementptr inbounds nuw i8, ptr %1, i64 112
  %14 = load i32, ptr %13, align 8, !tbaa !34
  %15 = tail call ptr @ff_get_audio_buffer(ptr noundef %8, i32 noundef %14) #5
  %.not14 = icmp eq ptr %15, null
  br i1 %.not14, label %16, label %17

16:                                               ; preds = %12
  call void @av_frame_free(ptr noundef nonnull %3) #5
  br label %36

17:                                               ; preds = %12
  %18 = tail call i32 @av_frame_copy_props(ptr noundef nonnull %15, ptr noundef nonnull %1) #5
  br label %19

19:                                               ; preds = %2, %17
  %.0 = phi ptr [ %15, %17 ], [ %1, %2 ]
  %20 = getelementptr inbounds nuw i8, ptr %10, i64 16
  %21 = load ptr, ptr %20, align 8, !tbaa !40
  %22 = getelementptr inbounds nuw i8, ptr %.0, i64 96
  %23 = load ptr, ptr %22, align 8, !tbaa !43
  %24 = getelementptr inbounds nuw i8, ptr %1, i64 96
  %25 = load ptr, ptr %24, align 8, !tbaa !43
  %26 = getelementptr inbounds nuw i8, ptr %1, i64 112
  %27 = load i32, ptr %26, align 8, !tbaa !34
  %28 = getelementptr inbounds nuw i8, ptr %1, i64 388
  %29 = load i32, ptr %28, align 4, !tbaa !44
  %30 = getelementptr inbounds nuw i8, ptr %10, i64 8
  %31 = load float, ptr %30, align 8, !tbaa !45
  %32 = fdiv nsz float %31, 7.500000e+02
  tail call void %21(ptr noundef %23, ptr noundef %25, i32 noundef %27, i32 noundef %29, float noundef %32) #5
  %.not15 = icmp eq ptr %.0, %1
  br i1 %.not15, label %34, label %33

33:                                               ; preds = %19
  call void @av_frame_free(ptr noundef nonnull %3) #5
  br label %34

34:                                               ; preds = %33, %19
  %35 = call i32 @ff_filter_frame(ptr noundef %8, ptr noundef nonnull %.0) #5
  br label %36

36:                                               ; preds = %34, %16
  %.012 = phi i32 [ %35, %34 ], [ -12, %16 ]
  ret i32 %.012
}